; Function Attrs: mustprogress uwtable
define hidden void @_ZN11func_interp18reset_interp_cacheEv(ptr nocapture noundef nonnull align 8 dereferenceable(56) %this) local_unnamed_addr #3 align 2 {
entry:
  %0 = load ptr, ptr %this, align 8
  %m_interp = getelementptr inbounds i8, ptr %this, i64 40
  %1 = load ptr, ptr %m_interp, align 8
  %tobool.not.i = icmp eq ptr %1, null
  br i1 %tobool.not.i, label %_ZN11ast_manager7dec_refEP3ast.exit, label %if.then.i

if.then.i:                                        ; preds = %entry
  %m_ref_count.i.i = getelementptr inbounds i8, ptr %1, i64 8
  %2 = load i32, ptr %m_ref_count.i.i, align 4
  %dec.i.i = add i32 %2, -1
  store i32 %dec.i.i, ptr %m_ref_count.i.i, align 4
  %cmp.i = icmp eq i32 %dec.i.i, 0
  br i1 %cmp.i, label %if.then2.i, label %_ZN11ast_manager7dec_refEP3ast.exit

if.then2.i:                                       ; preds = %if.then.i
  tail call void @_ZN11ast_manager11delete_nodeEP3ast(ptr noundef nonnull align 8 dereferenceable(976) %0, ptr noundef nonnull %1)
  br label %_ZN11ast_manager7dec_refEP3ast.exit

_ZN11ast_manager7dec_refEP3ast.exit:              ; preds = %entry, %if.then.i, %if.then2.i
  %3 = load ptr, ptr %this, align 8
  %m_array_interp = getelementptr inbounds i8, ptr %this, i64 48
  %4 = load ptr, ptr %m_array_interp, align 8
  %tobool.not.i1 = icmp eq ptr %4, null
  br i1 %tobool.not.i1, label %_ZN11ast_manager7dec_refEP3ast.exit7, label %if.then.i2

if.then.i2:                                       ; preds = %_ZN11ast_manager7dec_refEP3ast.exit
  %m_ref_count.i.i3 = getelementptr inbounds i8, ptr %4, i64 8
  %5 = load i32, ptr %m_ref_count.i.i3, align 4
  %dec.i.i4 = add i32 %5, -1
  store i32 %dec.i.i4, ptr %m_ref_count.i.i3, align 4
  %cmp.i5 = icmp eq i32 %dec.i.i4, 0
  br i1 %cmp.i5, label %if.then2.i6, label %_ZN11ast_manager7dec_refEP3ast.exit7

if.then2.i6:                                      ; preds = %if.then.i2
  tail call void @_ZN11ast_manager11delete_nodeEP3ast(ptr noundef nonnull align 8 dereferenceable(976) %3, ptr noundef nonnull %4)
  br label %_ZN11ast_manager7dec_refEP3ast.exit7

_ZN11ast_manager7dec_refEP3ast.exit7:             ; preds = %_ZN11ast_manager7dec_refEP3ast.exit, %if.then.i2, %if.then2.i6
  tail call void @llvm.memset.p0.i64(ptr noundef nonnull align 8 dereferenceable(16) %m_interp, i8 0, i64 16, i1 false)
  ret void
}